(dp0
Vengine
p1
Vxelatex
p2
sVpackages
p3
c__builtin__
set
p4
((lp5
Vhyperref
p6
aVpolyglossia
p7
aVamsmath
p8
aVpdfpages
p9
aVurl
p10
aVhyphenat
p11
aVtabularx
p12
aVgraphicx
p13
aVnatbib
p14
atp15
Rp16
sVfiles_with_guttermarks
p17
g4
((lp18
V/Users/csefalvayk/Developer/covid19-vaccine-pv/writeup/writeup.tex
p19
aS'writeup.tex'
p20
aV/Users/csefalvayk/Developer/covid19-vaccine-pv/writeup/./writeup.tex
p21
atp22
Rp23
sVsynctex
p24
I01
s.