(dp0
Vengine
p1
Vxelatex
p2
sVpackages
p3
c__builtin__
set
p4
((lp5
Vamsmath
p6
aVamsfonts
p7
aVgraphicx
p8
aVnatbib
p9
atp10
Rp11
sVfiles_with_guttermarks
p12
g4
((lp13
V/Users/csefalvayk/Developer/covid19-vaccine-pv/writeup/writeup.tex
p14
aS'writeup.tex'
p15
aV/Users/csefalvayk/Developer/covid19-vaccine-pv/writeup/./writeup.tex
p16
atp17
Rp18
sVsynctex
p19
I01
s.