(dp0
Vengine
p1
Vxelatex
p2
sVpackages
p3
c__builtin__
set
p4
((lp5
Vhyperref
p6
aVpolyglossia
p7
aVamsmath
p8
aVurl
p9
aVhyphenat
p10
aVgraphicx
p11
aVnatbib
p12
atp13
Rp14
sVfiles_with_guttermarks
p15
g4
((lp16
V/Users/csefalvayk/Developer/covid19-vaccine-pv/writeup/writeup.tex
p17
aS'writeup.tex'
p18
aV/Users/csefalvayk/Developer/covid19-vaccine-pv/writeup/./writeup.tex
p19
atp20
Rp21
sVsynctex
p22
I01
s.